Microchip MPLAB XC8 Compiler V3.00

Linker command line:

-W-3 \
  --edf=C:\Program Files\Microchip\xc8\v3.00\pic\dat\20241204225717_en.msgs \
  -cn -h+dist/debug/production\gerard.pc-axel.maynes_P2FA.X.production.sym \
  --cmf=dist/debug/production\gerard.pc-axel.maynes_P2FA.X.production.cmf \
  -z -Q18F4321 -oC:\Users\gerar\AppData\Local\Temp\xcAsnk8.\driver_tmp_3.o \
  --defsym=__MPLAB_BUILD=1 --fixupoverflow=error \
  -Mdist/debug/production/gerard.pc-axel.maynes_P2FA.X.production.map \
  --md=C:\Users\gerar\AppData\Local\Temp\xcAsnk8.\driver_tmp_0.dat -E1 \
  -ver=XC8 Compiler -ACODE=00h-01FFFh -ACONST=00h-01FFFh \
  -ASMALLCONST=0200h-02FFhx30 -AMEDIUMCONST=0200h-01FFFh -ACOMRAM=01h-07Fh \
  -AABS1=00h-01FFh -ABIGRAM=01h-01FFh -ARAM=080h-0FFh,0100h-01FFh \
  -ABANK0=080h-0FFh -ABANK1=0100h-01FFh -ASFR=0F80h-0FFFh \
  -ABIGSFR=0F80h-0FFFh -ACONFIG=0300000h-030000Dh -AIDLOC=0200000h-0200007h \
  -AEEDATA=0F00000h-0F000FFh -peeprom_data=EEDATA \
  -preset_vec=00h,intcode=8h,intcodelo=18h,sivt_lo,sivt_hi=CODE \
  -ppowerup=CODE,init -pramtop=0200h -psmallconst=SMALLCONST \
  -pmediumconst=MEDIUMCONST -pconst=CONST -AFARRAM=00h-00h \
  -prdata=COMRAM,nvrram=COMRAM,nvbit=COMRAM,rbss=COMRAM,rbit=COMRAM \
  -pfarbss=FARRAM,fardata=FARRAM,nvFARRAM=FARRAM \
  -pintsave_regs=BIGRAM,bigbss=BIGRAM,bigdata=BIGRAM -pbss=RAM \
  -pidata=CODE,irdata=CODE,ibigdata=CODE,ifardata=CODE -prparam=COMRAM \
  C:\Users\gerar\AppData\Local\Temp\xcAsnk8.\driver_tmp_9.o \
  dist/debug/production\gerard.pc-axel.maynes_P2FA.X.production.o 

Object code version is 3.11

Machine type is 18F4321



                Name                               Link     Load   Length Selector   Space Scale
C:\Users\gerar\AppData\Local\Temp\xcAsnk8.\driver_tmp_9.o
                idloc                            200000   200000        8        0       5
                config                           300000   300000        E        0       4
                init                                 26       26        4        C       0
                reset_vec                             0        0        4        0       0
dist/debug/production\gerard.pc-axel.maynes_P2FA.X.production.o
                intcodelo                            18       18        E        C       0
                intcode                               8        8        6        4       0
                idloc                            200000   200000        8        0       5
                config                           300000   300000        E        0       4
                temp                                 7C       7C        1        1       1
                mediumconst                        1E2E     1E2E      1D2      F17       0
                text54                             1AE8     1AE8       18        C       0
                intcode_body                       1B66     1B66        A        C       0
                text51                             15D6     15D6       64        C       0
                text50                             1572     1572       64        C       0
                text49                             1958     1958       32        C       0
                text48                             12CA     12CA       76        C       0
                text47                             1880     1880       3C        C       0
                text46                             17F2     17F2       4C        C       0
                text45                             1A28     1A28       24        C       0
                text44                             18F2     18F2       34        C       0
                text43                             1B28     1B28       14        C       0
                text42                              DFE      DFE       EE        C       0
                text41                             198A     198A       2A        C       0
                text40                             1B3C     1B3C       10        C       0
                text39                             1750     1750       54        C       0
                text38                             1B4C     1B4C        E        C       0
                text37                             1B78     1B78        8        C       0
                text36                             1AD0     1AD0       18        C       0
                text35                             169A     169A       5C        C       0
                text34                             1094     1094       CE        C       0
                text33                             1506     1506       6C        C       0
                text32                              FC0      FC0       D4        C       0
                text31                             1AB8     1AB8       18        C       0
                text30                             163A     163A       60        C       0
                text29                             1B8C     1B8C        6        C       0
                text28                             1B14     1B14       14        C       0
                text27                             1A6E     1A6E       1A        C       0
                text26                             1426     1426       72        C       0
                text25                             1AA0     1AA0       18        C       0
                text24                             1A02     1A02       26        C       0
                text23                             19B4     19B4       28        C       0
                text22                             18BC     18BC       36        C       0
                text21                             1B86     1B86        6        C       0
                text20                             1A88     1A88       18        C       0
                text19                              CE6      CE6      118        C       0
                text18                             1B5A     1B5A        C        C       0
                text17                             1B96     1B96        4        C       0
                text16                             1B00     1B00       14        C       0
                text15                             1498     1498       6E        C       0
                text14                             1B92     1B92        4        C       0
                text13                             16F6     16F6       5A        C       0
                text12                              698      698      2EE        C       0
                text11                             19DC     19DC       26        C       0
                text10                              986      986      22A        C       0
                text9                              17A4     17A4       4E        C       0
                text8                               EEC      EEC       D4        C       0
                text7                               BB0      BB0      136        C       0
                text6                              1B70     1B70        8        C       0
                text5                                2A       2A      66E        C       0
                text4                              1926     1926       32        C       0
                text3                              122E     122E       9C        C       0
                text2                              1340     1340       74        C       0
                text1                              1162     1162       CC        C       0
                text0                              183E     183E       42        C       0
                cstackCOMRAM                         54       54       22        1       1
                bssBANK1                            100      100       50      100       1
                dataBANK0                            C3       C3       22       80       1
                bssBANK0                             80       80       43       80       1
                dataCOMRAM                           76       76        6        1       1
                bssCOMRAM                             1        1       53        1       1
                cinit                              13B4     13B4       72        C       0
                idataBANK0                         1A4C     1A4C       22        C       0
                idataCOMRAM                        1B80     1B80        6        C       0

TOTAL           Name                               Link     Load   Length     Space
        CLASS   CODE           
                intcodelo                            18       18        E         0
                intcode                               8        8        6         0
                init                                 26       26        4         0
                reset_vec                             0        0        4         0
                text54                             1AE8     1AE8       18         0
                intcode_body                       1B66     1B66        A         0
                text51                             15D6     15D6       64         0
                text50                             1572     1572       64         0
                text49                             1958     1958       32         0
                text48                             12CA     12CA       76         0
                text47                             1880     1880       3C         0
                text46                             17F2     17F2       4C         0
                text45                             1A28     1A28       24         0
                text44                             18F2     18F2       34         0
                text43                             1B28     1B28       14         0
                text42                              DFE      DFE       EE         0
                text41                             198A     198A       2A         0
                text40                             1B3C     1B3C       10         0
                text39                             1750     1750       54         0
                text38                             1B4C     1B4C        E         0
                text37                             1B78     1B78        8         0
                text36                             1AD0     1AD0       18         0
                text35                             169A     169A       5C         0
                text34                             1094     1094       CE         0
                text33                             1506     1506       6C         0
                text32                              FC0      FC0       D4         0
                text31                             1AB8     1AB8       18         0
                text30                             163A     163A       60         0
                text29                             1B8C     1B8C        6         0
                text28                             1B14     1B14       14         0
                text27                             1A6E     1A6E       1A         0
                text26                             1426     1426       72         0
                text25                             1AA0     1AA0       18         0
                text24                             1A02     1A02       26         0
                text23                             19B4     19B4       28         0
                text22                             18BC     18BC       36         0
                text21                             1B86     1B86        6         0
                text20                             1A88     1A88       18         0
                text19                              CE6      CE6      118         0
                text18                             1B5A     1B5A        C         0
                text17                             1B96     1B96        4         0
                text16                             1B00     1B00       14         0
                text15                             1498     1498       6E         0
                text14                             1B92     1B92        4         0
                text13                             16F6     16F6       5A         0
                text12                              698      698      2EE         0
                text11                             19DC     19DC       26         0
                text10                              986      986      22A         0
                text9                              17A4     17A4       4E         0
                text8                               EEC      EEC       D4         0
                text7                               BB0      BB0      136         0
                text6                              1B70     1B70        8         0
                text5                                2A       2A      66E         0
                text4                              1926     1926       32         0
                text3                              122E     122E       9C         0
                text2                              1340     1340       74         0
                text1                              1162     1162       CC         0
                text0                              183E     183E       42         0
                cinit                              13B4     13B4       72         0
                idataBANK0                         1A4C     1A4C       22         0
                idataCOMRAM                        1B80     1B80        6         0

        CLASS   CONST          

        CLASS   SMALLCONST     

        CLASS   MEDIUMCONST    
                mediumconst                        1E2E     1E2E      1D2         0

        CLASS   COMRAM         
                temp                                 7C       7C        1         1
                cstackCOMRAM                         54       54       22         1
                dataCOMRAM                           76       76        6         1
                bssCOMRAM                             1        1       53         1

        CLASS   ABS1           

        CLASS   BIGRAM         

        CLASS   RAM            

        CLASS   BANK0          
                dataBANK0                            C3       C3       22         1
                bssBANK0                             80       80       43         1

        CLASS   BANK1          
                bssBANK1                            100      100       50         1

        CLASS   SFR            

        CLASS   BIGSFR         

        CLASS   CONFIG         
                config                           300000   300000        E         4

        CLASS   IDLOC          
                idloc                            200000   200000        8         5

        CLASS   EEDATA         

        CLASS   FARRAM         

        CLASS   HEAP           

        CLASS   STACK          



SEGMENTS        Name                           Load    Length   Top    Selector   Space  Class

                reset_vec                      000000  000004  000004         0       0  CODE    
                bssCOMRAM                      000001  00007C  00007D         1       1  COMRAM  
                intcode                        000008  000006  00000E         4       0  CODE    
                intcodelo                      000018  001B82  001B9A         C       0  CODE    
                bssBANK0                       000080  000065  0000E5        80       1  BANK0   
                bssBANK1                       000100  000050  000150       100       1  BANK1   
                mediumconst                    001E2E  0001D2  002000       F17       0  MEDIUMCO


UNUSED ADDRESS RANGES

        Name                Unused          Largest block    Delta
        BANK0            0000E5-0000FF               1B
        BANK1            000150-0001FF               B0
        BIGRAM           00007D-00007F                3
                         0000E5-0000FF               1B
                         000150-0001FF               B0
        BIGSFR           000F80-000FFF               80
        CODE             000004-000007                4
                         00000E-000017                A
                         001B9A-001E2D              294
        COMRAM           00007D-00007F                3
        CONST            000004-000007                4
                         00000E-000017                A
                         001B9A-001E2D              294
        EEDATA           F00000-F000FF              100
        MEDIUMCONST      001B9A-001E2D              294
        RAM              0000E5-0000FF               1B
                         000150-0001FF               B0
        SFR              000F80-000FFF               80
        SMALLCONST       001B9A-001E2D              100

                                  Symbol Table

?_TI_GetTics                              cstackCOMRAM 000055
?_Terminal_TXAvailable                    cstackCOMRAM 000055
CantaData@Data                            cstackCOMRAM 000057
CantaIR@IR                                cstackCOMRAM 000057
CantaPartAlta@c                           cstackCOMRAM 000056
CantaPartBaixa@c                          cstackCOMRAM 000056
EscriuPrimeraOrdre@ordre                  cstackCOMRAM 000056
Espera@Timer                              cstackCOMRAM 000062
Espera@ms                                 cstackCOMRAM 000064
GetTecla@columna                          cstackCOMRAM 000057
GetTecla@fila                             cstackCOMRAM 000058
LcGotoXY@Column                           cstackCOMRAM 000071
LcGotoXY@Fisics                           cstackCOMRAM 00006F
LcGotoXY@Row                              cstackCOMRAM 00006A
LcInit@columns                            cstackCOMRAM 00006A
LcInit@i                                  cstackCOMRAM 00006C
LcInit@rows                               cstackCOMRAM 00006B
LcPutChar@c                               cstackCOMRAM 000072
TI_GetTics@CopiaTicsActual                cstackCOMRAM 00005D
TI_GetTics@TimerHandle                    cstackCOMRAM 000061
TI_Init@counter                           cstackCOMRAM 000055
TI_NewTimer@Comptador                     cstackCOMRAM 000057
TI_NewTimer@TimerHandle                   cstackCOMRAM 000055
TI_ResetTics@TimerHandle                  cstackCOMRAM 000055
Terminal_SendChar@c                       cstackCOMRAM 000058
_ADCON1                                   (abs)        000FC1
_ActualLeds                               bssBANK0     0000B8
_BAUDCON                                  (abs)        000FB8
_CantaData                                text4        001926
_CantaIR                                  text49       001958
_CantaPartAlta                            text51       0015D6
_CantaPartBaixa                           text50       001572
_ColumnAct                                bssCOMRAM    00003B
_Columnas                                 bssCOMRAM    000025
_Columns                                  bssCOMRAM    00003D
_EscriuPrimeraOrdre                       text48       0012CA
_Espera                                   text44       0018F2
_Filas                                    bssCOMRAM    000026
_GetTecla                                 text30       00163A
_HighRSI                                  intcode      000008
_INTCONbits                               (abs)        000FF2
_LATA                                     (abs)        000F89
_LATBbits                                 (abs)        000F8A
_LATCbits                                 (abs)        000F8B
_LATD                                     (abs)        000F8C
_LATEbits                                 (abs)        000F8D
_LcGotoXY                                 text3        00122E
_LcGotoXY$404                             cstackCOMRAM 00006D
_LcInit                                   text42       000DFE
_LcPutChar                                text2        001340
_LowRSI                                   intcodelo    000018
_PIR1bits                                 (abs)        000F9E
_PORTCbits                                (abs)        000F82
_PORTD                                    (abs)        000F83
_RCREG                                    (abs)        000FAE
_RCSTA                                    (abs)        000FAB
_RSI_Timer0                               text54       001AE8
_RowAct                                   bssCOMRAM    00003C
_Rows                                     bssCOMRAM    00003E
_SPBRG                                    (abs)        000FAF
_T0CON                                    (abs)        000FD5
_TI_GetTics                               text46       0017F2
_TI_Init                                  text41       00198A
_TI_NewTimer                              text47       001880
_TI_ResetTics                             text45       001A28
_TMR0                                     (abs)        000FD6
_TMR0IF                                   (abs)        007F92
_TRISA                                    (abs)        000F92
_TRISBbits                                (abs)        000F93
_TRISCbits                                (abs)        000F94
_TRISD                                    (abs)        000F95
_TRISE                                    (abs)        000F96
_TRISEbits                                (abs)        000F96
_TXREG                                    (abs)        000FAD
_TXSTA                                    (abs)        000FAC
_Terminal_Init                            text40       001B3C
_Terminal_RXAvailable                     text18       001B5A
_Terminal_ReceiveChar                     text17       001B96
_Terminal_SendChar                        text16       001B00
_Terminal_TXAvailable                     text28       001B14
_Tics                                     bssCOMRAM    000007
_Timer                                    bssCOMRAM    000053
_Timers                                   bssBANK0     00009E
_WaitForBusy                              text43       001B28
__HRAM                                    (abs)        000000
__H__absolute__                           __absolute__ 000000
__Habs1                                   abs1         000000
__Hbank0                                  bank0        000000
__Hbank1                                  bank1        000000
__Hbigbss                                 bigbss       000000
__Hbigdata                                bigdata      000000
__Hbigram                                 bigram       000000
__Hbigsfr                                 bigsfr       000000
__Hbss                                    bss          000000
__HbssBANK0                               bssBANK0     000000
__HbssBANK1                               bssBANK1     000000
__HbssCOMRAM                              bssCOMRAM    000000
__Hcinit                                  cinit        000000
__Hclrtext                                clrtext      000000
__Hcomram                                 comram       000000
__Hconfig                                 config       30000E
__Hconst                                  const        000000
__HcstackCOMRAM                           cstackCOMRAM 000000
__Hdata                                   data         000000
__HdataBANK0                              dataBANK0    000000
__HdataCOMRAM                             dataCOMRAM   000000
__Heeprom_data                            eeprom_data  000000
__Hfarbss                                 farbss       000000
__Hfardata                                fardata      000000
__Hheap                                   heap         000000
__Hibigdata                               ibigdata     000000
__Hidata                                  idata        000000
__HidataBANK0                             idataBANK0   000000
__HidataCOMRAM                            idataCOMRAM  000000
__Hidloc                                  idloc        200008
__Hifardata                               ifardata     000000
__Hinit                                   init         00002A
__Hintcode                                intcode      00000E
__Hintcode_body                           intcode_body 000000
__Hintcodelo                              intcodelo    000026
__Hintentry                               intentry     000000
__Hintret                                 intret       000000
__Hintsave_regs                           intsave_regs 000000
__Hirdata                                 irdata       000000
__Hmediumconst                            mediumconst  002000
__HnvFARRAM                               nvFARRAM     000000
__Hnvbit                                  nvbit        000000
__Hnvrram                                 nvrram       000000
__Hparam                                  rparam       000000
__Hpowerup                                powerup      000000
__Hram                                    ram          000000
__Hramtop                                 ramtop       000200
__Hrbit                                   rbit         000000
__Hrbss                                   rbss         000000
__Hrdata                                  rdata        000000
__Hreset_vec                              reset_vec    000004
__Hrparam                                 rparam       000000
__Hsfr                                    sfr          000000
__Hsivt_hi                                sivt_hi      000000
__Hsivt_lo                                sivt_lo      000026
__Hsmallconst                             smallconst   000000
__Hspace_0                                (abs)        002000
__Hspace_1                                (abs)        000150
__Hspace_2                                (abs)        000000
__Hspace_4                                (abs)        60000E
__Hstack                                  stack        000000
__Hstruct                                 struct       000000
__Htemp                                   temp         00007D
__Htext                                   text         000000
__Htext0                                  text0        000000
__Htext1                                  text1        000000
__Htext10                                 text10       000000
__Htext11                                 text11       000000
__Htext12                                 text12       000000
__Htext13                                 text13       000000
__Htext14                                 text14       000000
__Htext15                                 text15       000000
__Htext16                                 text16       000000
__Htext17                                 text17       000000
__Htext18                                 text18       000000
__Htext19                                 text19       000000
__Htext2                                  text2        000000
__Htext20                                 text20       000000
__Htext21                                 text21       000000
__Htext22                                 text22       000000
__Htext23                                 text23       000000
__Htext24                                 text24       000000
__Htext25                                 text25       000000
__Htext26                                 text26       000000
__Htext27                                 text27       000000
__Htext28                                 text28       000000
__Htext29                                 text29       000000
__Htext3                                  text3        000000
__Htext30                                 text30       000000
__Htext31                                 text31       000000
__Htext32                                 text32       000000
__Htext33                                 text33       000000
__Htext34                                 text34       000000
__Htext35                                 text35       000000
__Htext36                                 text36       000000
__Htext37                                 text37       000000
__Htext38                                 text38       000000
__Htext39                                 text39       000000
__Htext4                                  text4        000000
__Htext40                                 text40       000000
__Htext41                                 text41       000000
__Htext42                                 text42       000000
__Htext43                                 text43       000000
__Htext44                                 text44       000000
__Htext45                                 text45       000000
__Htext46                                 text46       000000
__Htext47                                 text47       000000
__Htext48                                 text48       000000
__Htext49                                 text49       000000
__Htext5                                  text5        000000
__Htext50                                 text50       000000
__Htext51                                 text51       000000
__Htext54                                 text54       000000
__Htext6                                  text6        000000
__Htext7                                  text7        000000
__Htext8                                  text8        000000
__Htext9                                  text9        000000
__LRAM                                    (abs)        000001
__L__absolute__                           __absolute__ 000000
__Labs1                                   abs1         000000
__Lbank0                                  bank0        000000
__Lbank1                                  bank1        000000
__Lbigbss                                 bigbss       000000
__Lbigdata                                bigdata      000000
__Lbigram                                 bigram       000000
__Lbigsfr                                 bigsfr       000000
__Lbss                                    bss          000000
__LbssBANK0                               bssBANK0     000000
__LbssBANK1                               bssBANK1     000000
__LbssCOMRAM                              bssCOMRAM    000000
__Lcinit                                  cinit        000000
__Lclrtext                                clrtext      000000
__Lcomram                                 comram       000000
__Lconfig                                 config       000000
__Lconst                                  const        000000
__LcstackCOMRAM                           cstackCOMRAM 000000
__Ldata                                   data         000000
__LdataBANK0                              dataBANK0    000000
__LdataCOMRAM                             dataCOMRAM   000000
__Leeprom_data                            eeprom_data  000000
__Lfarbss                                 farbss       000000
__Lfardata                                fardata      000000
__Lheap                                   heap         000000
__Libigdata                               ibigdata     000000
__Lidata                                  idata        000000
__LidataBANK0                             idataBANK0   000000
__LidataCOMRAM                            idataCOMRAM  000000
__Lidloc                                  idloc        000000
__Lifardata                               ifardata     000000
__Linit                                   init         000026
__Lintcode                                intcode      000008
__Lintcode_body                           intcode_body 000000
__Lintcodelo                              intcodelo    000018
__Lintentry                               intentry     000000
__Lintret                                 intret       000000
__Lintsave_regs                           intsave_regs 000000
__Lirdata                                 irdata       000000
__Lmediumconst                            mediumconst  001E2E
__LnvFARRAM                               nvFARRAM     000000
__Lnvbit                                  nvbit        000000
__Lnvrram                                 nvrram       000000
__Lparam                                  rparam       000000
__Lpowerup                                powerup      000000
__Lram                                    ram          000000
__Lramtop                                 ramtop       000200
__Lrbit                                   rbit         000000
__Lrbss                                   rbss         000000
__Lrdata                                  rdata        000000
__Lreset_vec                              reset_vec    000000
__Lrparam                                 rparam       000000
__Lsfr                                    sfr          000000
__Lsivt_hi                                sivt_hi      000000
__Lsivt_lo                                sivt_lo      000026
__Lsmallconst                             smallconst   000000
__Lspace_0                                (abs)        000000
__Lspace_1                                (abs)        000000
__Lspace_2                                (abs)        000000
__Lspace_4                                (abs)        000000
__Lstack                                  stack        000000
__Lstruct                                 struct       000000
__Ltemp                                   temp         00007C
__Ltext                                   text         000000
__Ltext0                                  text0        000000
__Ltext1                                  text1        000000
__Ltext10                                 text10       000000
__Ltext11                                 text11       000000
__Ltext12                                 text12       000000
__Ltext13                                 text13       000000
__Ltext14                                 text14       000000
__Ltext15                                 text15       000000
__Ltext16                                 text16       000000
__Ltext17                                 text17       000000
__Ltext18                                 text18       000000
__Ltext19                                 text19       000000
__Ltext2                                  text2        000000
__Ltext20                                 text20       000000
__Ltext21                                 text21       000000
__Ltext22                                 text22       000000
__Ltext23                                 text23       000000
__Ltext24                                 text24       000000
__Ltext25                                 text25       000000
__Ltext26                                 text26       000000
__Ltext27                                 text27       000000
__Ltext28                                 text28       000000
__Ltext29                                 text29       000000
__Ltext3                                  text3        000000
__Ltext30                                 text30       000000
__Ltext31                                 text31       000000
__Ltext32                                 text32       000000
__Ltext33                                 text33       000000
__Ltext34                                 text34       000000
__Ltext35                                 text35       000000
__Ltext36                                 text36       000000
__Ltext37                                 text37       000000
__Ltext38                                 text38       000000
__Ltext39                                 text39       000000
__Ltext4                                  text4        000000
__Ltext40                                 text40       000000
__Ltext41                                 text41       000000
__Ltext42                                 text42       000000
__Ltext43                                 text43       000000
__Ltext44                                 text44       000000
__Ltext45                                 text45       000000
__Ltext46                                 text46       000000
__Ltext47                                 text47       000000
__Ltext48                                 text48       000000
__Ltext49                                 text49       000000
__Ltext5                                  text5        000000
__Ltext50                                 text50       000000
__Ltext51                                 text51       000000
__Ltext54                                 text54       000000
__Ltext6                                  text6        000000
__Ltext7                                  text7        000000
__Ltext8                                  text8        000000
__Ltext9                                  text9        000000
__S0                                      (abs)        002000
__S1                                      (abs)        000150
__S4                                      (abs)        000000
__S5                                      (abs)        000000
___heap_hi                                (abs)        000000
___heap_lo                                (abs)        000000
___inthi_sp                               stack        000000
___inthi_stack_hi                         stack        000000
___inthi_stack_lo                         stack        000000
___intlo_sp                               stack        000000
___intlo_stack_hi                         stack        000000
___intlo_stack_lo                         stack        000000
___param_bank                             (abs)        000000
___rparam_used                            (abs)        000001
___sp                                     stack        000000
___stack_hi                               stack        000000
___stack_lo                               stack        000000
__accesstop                               (abs)        000080
__activetblptr                            (abs)        000002
__end_of_CantaData                        text4        001958
__end_of_CantaIR                          text49       00198A
__end_of_CantaPartAlta                    text51       00163A
__end_of_CantaPartBaixa                   text50       0015D6
__end_of_EscriuPrimeraOrdre               text48       001340
__end_of_Espera                           text44       001926
__end_of_GetTecla                         text30       00169A
__end_of_HighRSI                          intcode_body 001B70
__end_of_LcGotoXY                         text3        0012CA
__end_of_LcInit                           text42       000EEC
__end_of_LcPutChar                        text2        0013B4
__end_of_LowRSI                           intcodelo    000026
__end_of_RSI_Timer0                       text54       001B00
__end_of_TI_GetTics                       text46       00183E
__end_of_TI_Init                          text41       0019B4
__end_of_TI_NewTimer                      text47       0018BC
__end_of_TI_ResetTics                     text45       001A4C
__end_of_Terminal_Init                    text40       001B4C
__end_of_Terminal_RXAvailable             text18       001B66
__end_of_Terminal_ReceiveChar             text17       001B9A
__end_of_Terminal_SendChar                text16       001B14
__end_of_Terminal_TXAvailable             text28       001B28
__end_of_WaitForBusy                      text43       001B3C
__end_of__initialization                  cinit        001418
__end_of_controlLED                       text9        0017F2
__end_of_delay_us                         text36       001AE8
__end_of_getActualLeds                    text13       001750
__end_of_getActualUID                     text15       001506
__end_of_getCurrentUserIndex              text14       001B96
__end_of_hashtag_pressed3s                text29       001B92
__end_of_initData                         text39       0017A4
__end_of_initLeds                         text38       001B5A
__end_of_initPorts                        text37       001B80
__end_of_initRFID                         text32       001094
__end_of_initTeclado                      text31       001AD0
__end_of_keymap                           mediumconst  001E4C
__end_of_main                             text0        001880
__end_of_motorTeclado                     text19       000DFE
__end_of_motorTerminal                    text10       000BB0
__end_of_motor_LEDs                       text8        000FC0
__end_of_motor_RFID                       text5        000698
__end_of_motor_Read                       text34       001162
__end_of_motor_SendChar                   text27       001A88
__end_of_motor_SendString                 text26       001498
__end_of_motor_StartSendString            text25       001AB8
__end_of_motor_Write                      text33       001572
__end_of_motor_datos                      text1        00122E
__end_of_motor_setCurrentUser             text7        000CE6
__end_of_printfUID                        text12       000986
__end_of_processBit                       text35       0016F6
__end_of_resetData                        text24       001A28
__end_of_saveHourToData                   text11       001A02
__end_of_setIndex                         text6        001B78
__end_of_setLEDIntensity                  text23       0019DC
__end_of_setLed                           text22       0018F2
__end_of_setStartSendString               text21       001B8C
__end_of_writeColumnas                    text20       001AA0
__end_ofprintfUID@hex                     mediumconst  001E40
__initialization                          cinit        0013B4
__mediumconst                             mediumconst  001E2E
__pbssBANK0                               bssBANK0     000080
__pbssBANK1                               bssBANK1     000100
__pbssCOMRAM                              bssCOMRAM    000001
__pcinit                                  cinit        0013B4
__pcstackCOMRAM                           cstackCOMRAM 000054
__pdataBANK0                              dataBANK0    0000C3
__pdataCOMRAM                             dataCOMRAM   000076
__pidataBANK0                             idataBANK0   001A4C
__pidataCOMRAM                            idataCOMRAM  001B80
__pintcode                                intcode      000008
__pintcode_body                           intcode_body 001B66
__pintcodelo                              intcodelo    000018
__pmediumconst                            mediumconst  001E2E
__ptext0                                  text0        00183E
__ptext1                                  text1        001162
__ptext10                                 text10       000986
__ptext11                                 text11       0019DC
__ptext12                                 text12       000698
__ptext13                                 text13       0016F6
__ptext14                                 text14       001B92
__ptext15                                 text15       001498
__ptext16                                 text16       001B00
__ptext17                                 text17       001B96
__ptext18                                 text18       001B5A
__ptext19                                 text19       000CE6
__ptext2                                  text2        001340
__ptext20                                 text20       001A88
__ptext21                                 text21       001B86
__ptext22                                 text22       0018BC
__ptext23                                 text23       0019B4
__ptext24                                 text24       001A02
__ptext25                                 text25       001AA0
__ptext26                                 text26       001426
__ptext27                                 text27       001A6E
__ptext28                                 text28       001B14
__ptext29                                 text29       001B8C
__ptext3                                  text3        00122E
__ptext30                                 text30       00163A
__ptext31                                 text31       001AB8
__ptext32                                 text32       000FC0
__ptext33                                 text33       001506
__ptext34                                 text34       001094
__ptext35                                 text35       00169A
__ptext36                                 text36       001AD0
__ptext37                                 text37       001B78
__ptext38                                 text38       001B4C
__ptext39                                 text39       001750
__ptext4                                  text4        001926
__ptext40                                 text40       001B3C
__ptext41                                 text41       00198A
__ptext42                                 text42       000DFE
__ptext43                                 text43       001B28
__ptext44                                 text44       0018F2
__ptext45                                 text45       001A28
__ptext46                                 text46       0017F2
__ptext47                                 text47       001880
__ptext48                                 text48       0012CA
__ptext49                                 text49       001958
__ptext5                                  text5        00002A
__ptext50                                 text50       001572
__ptext51                                 text51       0015D6
__ptext54                                 text54       001AE8
__ptext6                                  text6        001B70
__ptext7                                  text7        000BB0
__ptext8                                  text8        000EEC
__ptext9                                  text9        0017A4
__ramtop                                  ramtop       000200
__smallconst                              mediumconst  001E2E
_card_timer                               bssCOMRAM    00004F
_colValues                                dataCOMRAM   000076
_configurations                           bssBANK0     000080
_controlLED                               text9        0017A4
_controlLED$455                           cstackCOMRAM 000056
_currentTime                              dataBANK0    0000DD
_currentUser                              bssCOMRAM    00003F
_delay_us                                 text36       001AD0
_getActualLeds                            text13       0016F6
_getActualUID                             text15       001498
_getCurrentUserIndex                      text14       001B92
_hashtag_pressed                          bssCOMRAM    000021
_hashtag_pressed3s                        text29       001B8C
_index                                    dataCOMRAM   00007B
_initData                                 text39       001750
_initLeds                                 text38       001B4C
_initPorts                                text37       001B78
_initRFID                                 text32       000FC0
_initTeclado                              text31       001AB8
_keymap                                   mediumconst  001E40
_main                                     text0        00183E
_motorTeclado                             text19       000CE6
_motorTerminal                            text10       000986
_motor_LEDs                               text8        000EEC
_motor_RFID                               text5        00002A
_motor_RFID$734                           cstackCOMRAM 000072
_motor_Read                               text34       001094
_motor_Read$697                           cstackCOMRAM 00005E
_motor_SendChar                           text27       001A6E
_motor_SendString                         text26       001426
_motor_StartSendString                    text25       001AA0
_motor_Write                              text33       001506
_motor_datos                              text1        001162
_motor_datos$931                          cstackCOMRAM 000073
_motor_setCurrentUser                     text7        000BB0
_new_configuration                        bssCOMRAM    00001C
_new_user                                 bssCOMRAM    00001B
_printfUID                                text12       000698
_processBit                               text35       00169A
_resetData                                text24       001A02
_saveHourToData                           text11       0019DC
_sending_string                           bssCOMRAM    000020
_setIndex                                 text6        001B70
_setLEDIntensity                          text23       0019B4
_setLed                                   text22       0018BC
_setStartSendString                       text21       001B86
_state                                    bssCOMRAM    000023
_state_read                               bssCOMRAM    000051
_state_str                                bssCOMRAM    000022
_state_write                              bssCOMRAM    000050
_str_ptr                                  bssCOMRAM    00000F
_tecla                                    bssCOMRAM    000024
_timer                                    bssCOMRAM    000052
_timer_teclado                            bssCOMRAM    000049
_userUIDs                                 dataBANK0    0000C3
_writeColumnas                            text20       001A88
btemp                                     temp         00007C
controlLED@estado                         cstackCOMRAM 000055
controlLED@ledActual                      cstackCOMRAM 000058
controlLED@ledBits                        dataBANK0    0000D7
delay_us@howMany                          cstackCOMRAM 000055
delay_us@x                                cstackCOMRAM 000056
end_of_initialization                     cinit        001418
getActualLeds@i                           cstackCOMRAM 000057
getActualLeds@i_912                       cstackCOMRAM 000058
getActualLeds@leds                        cstackCOMRAM 000055
getActualLeds@userIndex                   cstackCOMRAM 000056
getActualUID@UID                          cstackCOMRAM 000055
getActualUID@i                            cstackCOMRAM 000058
getActualUID@i_906                        cstackCOMRAM 000057
getActualUID@i_907                        cstackCOMRAM 000059
getActualUID@userIndex                    cstackCOMRAM 000056
initData@i                                cstackCOMRAM 000055
initData@i_896                            cstackCOMRAM 000058
initData@i_898                            cstackCOMRAM 000057
initData@j                                cstackCOMRAM 000056
initRFID@regVal                           cstackCOMRAM 000060
int$flags                                 temp         00007C
int_func                                  intcode_body 001B66
intlevel0                                 text         000000
intlevel1                                 text         000000
intlevel2                                 text         000000
intlevel3                                 text         000000
isa$std                                   (abs)        000001
isa$xinst                                 (abs)        000000
motorTerminal@currentUser                 bssBANK0     0000BE
motorTerminal@currentUserIndex            cstackCOMRAM 00006C
motorTerminal@hour                        dataBANK0    0000E1
motorTerminal@index                       bssCOMRAM    00001E
motorTerminal@opcion                      cstackCOMRAM 00006B
motorTerminal@state                       bssCOMRAM    00001F
motorTerminal@userNumber                  bssCOMRAM    00001D
motor_LEDs@currentTics                    cstackCOMRAM 000067
motor_LEDs@i                              cstackCOMRAM 00006B
motor_LEDs@i_461                          cstackCOMRAM 00006C
motor_LEDs@lastTics                       bssCOMRAM    00000B
motor_RFID@TagType                        bssCOMRAM    000032
motor_RFID@UID                            bssCOMRAM    000001
motor_RFID@addr                           bssCOMRAM    000028
motor_RFID@allZero                        bssCOMRAM    000030
motor_RFID@backBitsCalc                   bssCOMRAM    00002C
motor_RFID@cardRemoved                    bssCOMRAM    00002B
motor_RFID@checksum                       bssCOMRAM    000031
motor_RFID@currentUser                    bssCOMRAM    000044
motor_RFID@fifoLevel                      bssCOMRAM    00002D
motor_RFID@flag                           cstackCOMRAM 000074
motor_RFID@i                              bssCOMRAM    000034
motor_RFID@irqEn                          bssCOMRAM    000037
motor_RFID@lastBitsVal                    bssCOMRAM    00002E
motor_RFID@last_state                     bssCOMRAM    00002A
motor_RFID@n                              bssCOMRAM    000035
motor_RFID@operation_pending              bssCOMRAM    000029
motor_RFID@state                          bssCOMRAM    000039
motor_RFID@substate                       bssCOMRAM    000038
motor_RFID@tempRegValue                   bssCOMRAM    00002F
motor_RFID@value                          bssCOMRAM    000027
motor_RFID@waitIRq                        bssCOMRAM    000036
motor_Read@addr                           cstackCOMRAM 00005D
motor_Read@bit_count                      bssCOMRAM    00004B
motor_Read@timeout_counter                bssCOMRAM    000013
motor_Read@ucAddr                         bssCOMRAM    00004A
motor_Read@ucResult                       bssCOMRAM    00003A
motor_SendChar@c                          cstackCOMRAM 000058
motor_StartSendString@str                 cstackCOMRAM 000059
motor_Write@addr                          cstackCOMRAM 00005D
motor_Write@bit_count                     bssCOMRAM    00004E
motor_Write@ucAddr                        bssCOMRAM    00004D
motor_Write@ucValue                       bssCOMRAM    00004C
motor_Write@value                         cstackCOMRAM 00005C
motor_datos@i                             cstackCOMRAM 000075
motor_datos@lastChar                      bssCOMRAM    000017
motor_datos@pointer                       bssCOMRAM    000018
motor_datos@state                         bssCOMRAM    000019
motor_setCurrentUser@UID0                 cstackCOMRAM 00006F
motor_setCurrentUser@UID1                 cstackCOMRAM 00006B
motor_setCurrentUser@UID2                 cstackCOMRAM 00006C
motor_setCurrentUser@UID3                 cstackCOMRAM 00006D
motor_setCurrentUser@UID4                 cstackCOMRAM 00006E
motor_setCurrentUser@state_setCurrentUser bssCOMRAM    00001A
printfUID@buffer                          bssBANK1     000100
printfUID@currentUser                     cstackCOMRAM 00005B
printfUID@extraString                     cstackCOMRAM 00005D
printfUID@hex                             mediumconst  001E2F
printfUID@i                               cstackCOMRAM 000068
printfUID@leds                            cstackCOMRAM 000061
printfUID@ptr                             cstackCOMRAM 000069
printfUID@userIndex                       cstackCOMRAM 00005C
printfUID@val                             cstackCOMRAM 000067
processBit@bit_count                      cstackCOMRAM 000058
processBit@next_state                     cstackCOMRAM 00005A
processBit@state                          cstackCOMRAM 000059
processBit@val                            cstackCOMRAM 000057
resetData@i                               cstackCOMRAM 000055
resetData@j                               cstackCOMRAM 000056
saveHourToData@hour                       cstackCOMRAM 000055
saveHourToData@i                          cstackCOMRAM 000056
setIndex@indexActual                      cstackCOMRAM 000055
setLEDIntensity@intensity                 cstackCOMRAM 000056
setLEDIntensity@ledIndex                  cstackCOMRAM 000055
setLEDIntensity@userIndex                 cstackCOMRAM 000057
setLed@ledIndex                           bssCOMRAM    000015
setLed@modeLED                            bssCOMRAM    000016
setLed@tecla                              cstackCOMRAM 000058
stackhi                                   (abs)        000000
stacklo                                   (abs)        000000
start                                     init         000026
start_initialization                      cinit        0013B4
ttemp5                                    temp         00007D
ttemp6                                    temp         000080
ttemp7                                    temp         000084
wtemp8                                    temp         00007D


MODULE INFORMATION

Module		Function		Class		Link	Load	Size
TAD_TERMINAL.c
		_Terminal_ReceiveChar		CODE           	1B96	0000	4
		_Terminal_Init 		CODE           	1B3C	0000	16
		_printfUID     		CODE           	0698	0000	750
		_motorTerminal 		CODE           	0986	0000	554
		_Terminal_SendChar		CODE           	1B00	0000	20
		_hashtag_pressed3s		CODE           	1B8C	0000	6
		_Terminal_RXAvailable		CODE           	1B5A	0000	12
		_Terminal_TXAvailable		CODE           	1B14	0000	20
		_motor_SendString		CODE           	1426	0000	114
		_motor_SendChar		CODE           	1A6E	0000	26
		_setStartSendString		CODE           	1B86	0000	6
		_motor_StartSendString		CODE           	1AA0	0000	24

TAD_TERMINAL.c estimated size: 1552

TAD_RFID.c
		_processBit    		CODE           	169A	0000	92
		_delay_us      		CODE           	1AD0	0000	24
		_motor_Write   		CODE           	1506	0000	108
		_initRFID      		CODE           	0FC0	0000	212
		_motor_RFID    		CODE           	002A	0000	1646
		_motor_Read    		CODE           	1094	0000	206

TAD_RFID.c estimated size: 2288

TAD_DISPLAY.c
		_LcPutChar     		CODE           	1340	0000	116
		_EscriuPrimeraOrdre		CODE           	12CA	0000	118
		_WaitForBusy   		CODE           	1B28	0000	20
		_LcGotoXY      		CODE           	122E	0000	156
		_CantaData     		CODE           	1926	0000	50
		_LcInit        		CODE           	0DFE	0000	238
		_CantaPartAlta 		CODE           	15D6	0000	100
		_Espera        		CODE           	18F2	0000	52
		_CantaIR       		CODE           	1958	0000	50
		_CantaPartBaixa		CODE           	1572	0000	100

TAD_DISPLAY.c estimated size: 1000

TAD_LEDS.c
		_controlLED    		CODE           	17A4	0000	78
		_initLeds      		CODE           	1B4C	0000	14
		_motor_LEDs    		CODE           	0EEC	0000	212

TAD_LEDS.c estimated size: 304

TAD_DATOS.c
		_setLEDIntensity		CODE           	19B4	0000	40
		_resetData     		CODE           	1A02	0000	38
		_motor_datos   		CODE           	1162	0000	204
		_motor_setCurrentUser		CODE           	0BB0	0000	310
		_getCurrentUserIndex		CODE           	1B92	0000	4
		_getActualUID  		CODE           	1498	0000	110
		_saveHourToData		CODE           	19DC	0000	38
		_getActualLeds 		CODE           	16F6	0000	90
		_setIndex      		CODE           	1B70	0000	8
		_setLed        		CODE           	18BC	0000	54
		_initData      		CODE           	1750	0000	84

TAD_DATOS.c estimated size: 980

shared
		_keymap        		MEDIUMCONST    	1E40	0000	12
		printfUID@hex  		MEDIUMCONST    	1E2F	0000	17
		__initialization		CODE           	13B4	0000	100

shared estimated size: 129

TAD_TECLADO.c
		_motorTeclado  		CODE           	0CE6	0000	280
		_writeColumnas 		CODE           	1A88	0000	24
		_initTeclado   		CODE           	1AB8	0000	24
		_GetTecla      		CODE           	163A	0000	96

TAD_TECLADO.c estimated size: 424

TAD_TIMER.c
		_TI_ResetTics  		CODE           	1A28	0000	36
		_TI_NewTimer   		CODE           	1880	0000	60
		_RSI_Timer0    		CODE           	1AE8	0000	24
		_TI_Init       		CODE           	198A	0000	42
		_TI_GetTics    		CODE           	17F2	0000	76

TAD_TIMER.c estimated size: 238

main.c
		_main          		CODE           	183E	0000	66
		_HighRSI       		CODE           	0008	0000	16
		_initPorts     		CODE           	1B78	0000	8
		_LowRSI        		CODE           	0018	0000	14

main.c estimated size: 104

